ccopy_reg
_reconstructor
p0
(cpyhaukka.classify
BiomarkerClassifier
p1
c__builtin__
object
p2
Ntp3
Rp4
(dp5
S'classifier'
p6
g0
(cnltk.classify.naivebayes
NaiveBayesClassifier
p7
g2
Ntp8
Rp9
(dp10
S'_labels'
p11
(lp12
S'BIO'
p13
aS'O'
p14
asS'_feature_probdist'
p15
(dp16
(g14
S'cbio'
p17
tp18
g0
(cnltk.probability
ELEProbDist
p19
g2
Ntp20
Rp21
(dp22
S'_gamma'
p23
F0.5
sS'_N'
p24
I13
sS'_freqdist'
p25
cnltk.probability
FreqDist
p26
((dp27
I00
I13
stp28
Rp29
sS'_bins'
p30
I2
sS'_divisor'
p31
F14.0
sbs(g14
S'word'
p32
tp33
g0
(g19
g2
Ntp34
Rp35
(dp36
g23
F0.5
sg24
I13
sg25
g26
((dp37
I00
I1
sI01
I12
stp38
Rp39
sg30
I2
sg31
F14.0
sbs(g13
g32
tp40
g0
(g19
g2
Ntp41
Rp42
(dp43
g23
F0.5
sg24
I2
sg25
g26
((dp44
I00
I2
stp45
Rp46
sg30
I2
sg31
F3.0
sbs(g13
S'has_digits'
p47
tp48
g0
(g19
g2
Ntp49
Rp50
(dp51
g23
F0.5
sg24
I2
sg25
g26
((dp52
I00
I1
sI01
I1
stp53
Rp54
sg30
I2
sg31
F3.0
sbs(g13
g17
tp55
g0
(g19
g2
Ntp56
Rp57
(dp58
g23
F0.5
sg24
I2
sg25
g26
((dp59
I00
I1
sI01
I1
stp60
Rp61
sg30
I2
sg31
F3.0
sbs(g14
g47
tp62
g0
(g19
g2
Ntp63
Rp64
(dp65
g23
F0.5
sg24
I13
sg25
g26
((dp66
I00
I13
stp67
Rp68
sg30
I2
sg31
F14.0
sbs(g14
S'all_caps'
p69
tp70
g0
(g19
g2
Ntp71
Rp72
(dp73
g23
F0.5
sg24
I13
sg25
g26
((dp74
I00
I13
stp75
Rp76
sg30
I2
sg31
F14.0
sbs(g13
g69
tp77
g0
(g19
g2
Ntp78
Rp79
(dp80
g23
F0.5
sg24
I2
sg25
g26
((dp81
I01
I2
stp82
Rp83
sg30
I2
sg31
F3.0
sbssS'_label_probdist'
p84
g0
(g19
g2
Ntp85
Rp86
(dp87
g23
F0.5
sg24
I15
sg25
g26
((dp88
g13
I2
sg14
I13
stp89
Rp90
sg30
I2
sg31
F16.0
sbsbsb.